; Function Attrs: nounwind sspstrong uwtable
define dso_local ptr @qmp_x_query_irq(ptr noundef readnone captures(none) %errp) local_unnamed_addr #0 {
entry:
  %call = tail call ptr @g_string_new(ptr noundef nonnull @.str.5) #7
  %call1 = tail call ptr @object_get_root() #7
  %call2 = tail call i32 @object_child_foreach_recursive(ptr noundef %call1, ptr noundef nonnull @qmp_x_query_irq_foreach, ptr noundef %call) #7
  %call3 = tail call ptr @human_readable_text_from_str(ptr noundef %call) #7
  %tobool.not.i.i = icmp eq ptr %call, null
  br i1 %tobool.not.i.i, label %glib_autoptr_cleanup_GString.exit, label %if.then.i.i

if.then.i.i:                                      ; preds = %entry
  %call.i.i.i = tail call ptr @g_string_free(ptr noundef nonnull %call, i32 noundef 1) #7
  br label %glib_autoptr_cleanup_GString.exit

glib_autoptr_cleanup_GString.exit:                ; preds = %entry, %if.then.i.i
  ret ptr %call3
}